target datalayout = "e-m:e-p270:32:32-p271:32:32-p272:64:64-i64:64-i128:128-f80:128-n8:16:32:64-S128"
target triple = "x86_64-pc-linux-gnu"

%struct.ident_t = type { i32, i32, i32, i32, ptr }
%"class.LightGBM::Metadata" = type <{ %"class.std::__cxx11::basic_string", i32, i32, i32, [4 x i8], %"class.std::vector", %"class.std::vector", %"class.std::vector.3", %"class.std::vector.8", %"class.std::vector.3", %"class.std::vector", i32, [4 x i8], i64, %"class.std::vector.13", %"class.std::vector.3", %"class.std::mutex", i8, i8, i8, i8, [4 x i8] }>
%"class.std::__cxx11::basic_string" = type { %"struct.std::__cxx11::basic_string<char>::_Alloc_hider", i64, %union.anon }
%"struct.std::__cxx11::basic_string<char>::_Alloc_hider" = type { ptr }
%union.anon = type { i64, [8 x i8] }
%"class.std::vector.8" = type { %"struct.std::_Vector_base.9" }
%"struct.std::_Vector_base.9" = type { %"struct.std::_Vector_base<std::__cxx11::basic_string<char>, std::allocator<std::__cxx11::basic_string<char>>>::_Vector_impl" }
%"struct.std::_Vector_base<std::__cxx11::basic_string<char>, std::allocator<std::__cxx11::basic_string<char>>>::_Vector_impl" = type { %"struct.std::_Vector_base<std::__cxx11::basic_string<char>, std::allocator<std::__cxx11::basic_string<char>>>::_Vector_impl_data" }
%"struct.std::_Vector_base<std::__cxx11::basic_string<char>, std::allocator<std::__cxx11::basic_string<char>>>::_Vector_impl_data" = type { ptr, ptr, ptr }
%"class.std::vector" = type { %"struct.std::_Vector_base" }
%"struct.std::_Vector_base" = type { %"struct.std::_Vector_base<float, std::allocator<float>>::_Vector_impl" }
%"struct.std::_Vector_base<float, std::allocator<float>>::_Vector_impl" = type { %"struct.std::_Vector_base<float, std::allocator<float>>::_Vector_impl_data" }
%"struct.std::_Vector_base<float, std::allocator<float>>::_Vector_impl_data" = type { ptr, ptr, ptr }
%"class.std::vector.13" = type { %"struct.std::_Vector_base.14" }
%"struct.std::_Vector_base.14" = type { %"struct.std::_Vector_base<double, std::allocator<double>>::_Vector_impl" }
%"struct.std::_Vector_base<double, std::allocator<double>>::_Vector_impl" = type { %"struct.std::_Vector_base<double, std::allocator<double>>::_Vector_impl_data" }
%"struct.std::_Vector_base<double, std::allocator<double>>::_Vector_impl_data" = type { ptr, ptr, ptr }
%"class.std::vector.3" = type { %"struct.std::_Vector_base.4" }
%"struct.std::_Vector_base.4" = type { %"struct.std::_Vector_base<int, std::allocator<int>>::_Vector_impl" }
%"struct.std::_Vector_base<int, std::allocator<int>>::_Vector_impl" = type { %"struct.std::_Vector_base<int, std::allocator<int>>::_Vector_impl_data" }
%"struct.std::_Vector_base<int, std::allocator<int>>::_Vector_impl_data" = type { ptr, ptr, ptr }
%"class.std::mutex" = type { %"class.std::__mutex_base" }
%"class.std::__mutex_base" = type { %union.pthread_mutex_t }
%union.pthread_mutex_t = type { %struct.__pthread_mutex_s }
%struct.__pthread_mutex_s = type { i32, i32, i32, i32, i32, i16, i16, %struct.__pthread_internal_list }
%struct.__pthread_internal_list = type { ptr, ptr }

@1 = private unnamed_addr constant %struct.ident_t { i32 0, i32 514, i32 0, i32 22, ptr @0 }, align 8

; Function Attrs: mustprogress nounwind uwtable
define linkonce_odr noundef nonnull align 8 dereferenceable(8) ptr @_ZNSt6vectorIdSaIdEEixEm(ptr noundef nonnull align 8 dereferenceable(24) %0, i64 noundef %1) #4 comdat align 2 {
  %3 = alloca ptr, align 8
  %4 = alloca i64, align 8
  store ptr %0, ptr %3, align 8, !tbaa !54
  store i64 %1, ptr %4, align 8, !tbaa !64
  %5 = load ptr, ptr %3, align 8
  %6 = getelementptr inbounds nuw %"struct.std::_Vector_base.14", ptr %5, i32 0, i32 0
  %7 = getelementptr inbounds nuw %"struct.std::_Vector_base<double, std::allocator<double>>::_Vector_impl_data", ptr %6, i32 0, i32 0
  %8 = load ptr, ptr %7, align 8, !tbaa !113
  %9 = load i64, ptr %4, align 8, !tbaa !64
  %10 = getelementptr inbounds nuw double, ptr %8, i64 %9
  ret ptr %10
}

; Function Attrs: mustprogress nounwind uwtable
define linkonce_odr noundef nonnull align 8 dereferenceable(8) ptr @_ZNKSt6vectorIdSaIdEEixEm(ptr noundef nonnull align 8 dereferenceable(24) %0, i64 noundef %1) #4 comdat align 2 {
  %3 = alloca ptr, align 8
  %4 = alloca i64, align 8
  store ptr %0, ptr %3, align 8, !tbaa !54
  store i64 %1, ptr %4, align 8, !tbaa !64
  %5 = load ptr, ptr %3, align 8
  %6 = getelementptr inbounds nuw %"struct.std::_Vector_base.14", ptr %5, i32 0, i32 0
  %7 = getelementptr inbounds nuw %"struct.std::_Vector_base<double, std::allocator<double>>::_Vector_impl_data", ptr %6, i32 0, i32 0
  %8 = load ptr, ptr %7, align 8, !tbaa !113
  %9 = load i64, ptr %4, align 8, !tbaa !64
  %10 = getelementptr inbounds nuw double, ptr %8, i64 %9
  ret ptr %10
}

; Function Attrs: alwaysinline norecurse nounwind uwtable
define internal void @_ZN8LightGBM8Metadata4InitERKS0_PKii.omp_outlined.13(ptr noalias noundef %0, ptr noalias noundef %1, ptr noundef nonnull align 4 dereferenceable(4) %2, ptr noundef %3, ptr noundef nonnull align 8 dereferenceable(300) %4, ptr noundef nonnull align 4 dereferenceable(4) %5, ptr noundef nonnull align 8 dereferenceable(8) %6) #20 {
  %8 = alloca ptr, align 8
  %9 = alloca ptr, align 8
  %10 = alloca ptr, align 8
  %11 = alloca ptr, align 8
  %12 = alloca ptr, align 8
  %13 = alloca ptr, align 8
  %14 = alloca ptr, align 8
  %15 = alloca ptr, align 8
  %16 = alloca i32, align 4
  %17 = alloca i32, align 4
  %18 = alloca i32, align 4
  %19 = alloca i32, align 4
  %20 = alloca i32, align 4
  %21 = alloca i32, align 4
  %22 = alloca i32, align 4
  %23 = alloca i32, align 4
  %24 = alloca i32, align 4
  %25 = alloca i64, align 8
  %26 = alloca i64, align 8
  %27 = alloca i32, align 4
  store ptr %0, ptr %8, align 8, !tbaa !119
  store ptr %1, ptr %9, align 8, !tbaa !119
  store ptr %2, ptr %10, align 8, !tbaa !119
  store ptr %3, ptr %11, align 8, !tbaa !4
  store ptr %4, ptr %12, align 8, !tbaa !4
  store ptr %5, ptr %13, align 8, !tbaa !119
  store ptr %6, ptr %14, align 8, !tbaa !155
  %28 = load ptr, ptr %10, align 8, !tbaa !119
  %29 = load ptr, ptr %11, align 8, !tbaa !4
  %30 = load ptr, ptr %12, align 8, !tbaa !4
  %31 = load ptr, ptr %13, align 8, !tbaa !119
  %32 = load ptr, ptr %14, align 8, !tbaa !155
  store ptr %30, ptr %15, align 8
  call void @llvm.lifetime.start.p0(i64 4, ptr %16) #3
  call void @llvm.lifetime.start.p0(i64 4, ptr %17) #3
  %33 = load i32, ptr %28, align 4, !tbaa !103
  store i32 %33, ptr %17, align 4, !tbaa !103
  call void @llvm.lifetime.start.p0(i64 4, ptr %18) #3
  %34 = load i32, ptr %17, align 4, !tbaa !103
  %35 = sub nsw i32 %34, 0
  %36 = sdiv i32 %35, 1
  %37 = sub nsw i32 %36, 1
  store i32 %37, ptr %18, align 4, !tbaa !103
  call void @llvm.lifetime.start.p0(i64 4, ptr %19) #3
  store i32 0, ptr %19, align 4, !tbaa !103
  call void @llvm.lifetime.end.p0(i64 4, ptr %19) #3
  %38 = load i32, ptr %17, align 4, !tbaa !103
  %39 = icmp slt i32 0, %38
  br i1 %39, label %40, label %112

40:                                               ; preds = %7
  call void @llvm.lifetime.start.p0(i64 4, ptr %20) #3
  store i32 0, ptr %20, align 4, !tbaa !103
  call void @llvm.lifetime.start.p0(i64 4, ptr %21) #3
  %41 = load i32, ptr %18, align 4, !tbaa !103
  store i32 %41, ptr %21, align 4, !tbaa !103
  call void @llvm.lifetime.start.p0(i64 4, ptr %22) #3
  store i32 1, ptr %22, align 4, !tbaa !103
  call void @llvm.lifetime.start.p0(i64 4, ptr %23) #3
  store i32 0, ptr %23, align 4, !tbaa !103
  call void @llvm.lifetime.start.p0(i64 4, ptr %24) #3
  %42 = load ptr, ptr %8, align 8
  %43 = load i32, ptr %42, align 4, !tbaa !103
  call void @__kmpc_for_static_init_4(ptr @1, i32 %43, i32 34, ptr %23, ptr %20, ptr %21, ptr %22, i32 1, i32 1)
  %44 = load i32, ptr %21, align 4, !tbaa !103
  %45 = load i32, ptr %18, align 4, !tbaa !103
  %46 = icmp sgt i32 %44, %45
  br i1 %46, label %47, label %49

47:                                               ; preds = %40
  %48 = load i32, ptr %18, align 4, !tbaa !103
  br label %51

49:                                               ; preds = %40
  %50 = load i32, ptr %21, align 4, !tbaa !103
  br label %51

51:                                               ; preds = %49, %47
  %52 = phi i32 [ %48, %47 ], [ %50, %49 ]
  store i32 %52, ptr %21, align 4, !tbaa !103
  %53 = load i32, ptr %20, align 4, !tbaa !103
  store i32 %53, ptr %16, align 4, !tbaa !103
  br label %54

54:                                               ; preds = %105, %51
  %55 = load i32, ptr %16, align 4, !tbaa !103
  %56 = load i32, ptr %21, align 4, !tbaa !103
  %57 = icmp sle i32 %55, %56
  br i1 %57, label %59, label %58

58:                                               ; preds = %54
  br label %108

59:                                               ; preds = %54
  %60 = load i32, ptr %16, align 4, !tbaa !103
  %61 = mul nsw i32 %60, 1
  %62 = add nsw i32 0, %61
  store i32 %62, ptr %24, align 4, !tbaa !103
  call void @llvm.lifetime.start.p0(i64 8, ptr %25) #3
  %63 = load i32, ptr %24, align 4, !tbaa !103
  %64 = sext i32 %63 to i64
  %65 = getelementptr inbounds nuw %"class.LightGBM::Metadata", ptr %29, i32 0, i32 1
  %66 = load i32, ptr %65, align 8, !tbaa !40
  %67 = sext i32 %66 to i64
  %68 = mul i64 %64, %67
  store i64 %68, ptr %25, align 8, !tbaa !64
  call void @llvm.lifetime.start.p0(i64 8, ptr %26) #3
  %69 = load i32, ptr %24, align 4, !tbaa !103
  %70 = sext i32 %69 to i64
  %71 = load ptr, ptr %15, align 8, !tbaa !4
  %72 = getelementptr inbounds nuw %"class.LightGBM::Metadata", ptr %71, i32 0, i32 1
  %73 = load i32, ptr %72, align 8, !tbaa !40
  %74 = sext i32 %73 to i64
  %75 = mul i64 %70, %74
  store i64 %75, ptr %26, align 8, !tbaa !64
  call void @llvm.lifetime.start.p0(i64 4, ptr %27) #3
  store i32 0, ptr %27, align 4, !tbaa !103
  br label %76

76:                                               ; preds = %100, %59
  %77 = load i32, ptr %27, align 4, !tbaa !103
  %78 = load i32, ptr %31, align 4, !tbaa !103
  %79 = icmp slt i32 %77, %78
  br i1 %79, label %81, label %80

80:                                               ; preds = %76
  call void @llvm.lifetime.end.p0(i64 4, ptr %27) #3
  br label %103

81:                                               ; preds = %76
  %82 = load ptr, ptr %15, align 8, !tbaa !4
  %83 = getelementptr inbounds nuw %"class.LightGBM::Metadata", ptr %82, i32 0, i32 14
  %84 = load i64, ptr %26, align 8, !tbaa !64
  %85 = load ptr, ptr %32, align 8, !tbaa !119
  %86 = load i32, ptr %27, align 4, !tbaa !103
  %87 = sext i32 %86 to i64
  %88 = getelementptr inbounds i32, ptr %85, i64 %87
  %89 = load i32, ptr %88, align 4, !tbaa !103
  %90 = sext i32 %89 to i64
  %91 = add i64 %84, %90
  %92 = call noundef nonnull align 8 dereferenceable(8) ptr @_ZNKSt6vectorIdSaIdEEixEm(ptr noundef nonnull align 8 dereferenceable(24) %83, i64 noundef %91) #3
  %93 = load double, ptr %92, align 8, !tbaa !162
  %94 = getelementptr inbounds nuw %"class.LightGBM::Metadata", ptr %29, i32 0, i32 14
  %95 = load i64, ptr %25, align 8, !tbaa !64
  %96 = load i32, ptr %27, align 4, !tbaa !103
  %97 = sext i32 %96 to i64
  %98 = add i64 %95, %97
  %99 = call noundef nonnull align 8 dereferenceable(8) ptr @_ZNSt6vectorIdSaIdEEixEm(ptr noundef nonnull align 8 dereferenceable(24) %94, i64 noundef %98) #3
  store double %93, ptr %99, align 8, !tbaa !162
  br label %100

100:                                              ; preds = %81
  %101 = load i32, ptr %27, align 4, !tbaa !103
  %102 = add nsw i32 %101, 1
  store i32 %102, ptr %27, align 4, !tbaa !103
  br label %76, !llvm.loop !226

103:                                              ; preds = %80
  call void @llvm.lifetime.end.p0(i64 8, ptr %26) #3
  call void @llvm.lifetime.end.p0(i64 8, ptr %25) #3
  br label %104

104:                                              ; preds = %103
  br label %105

105:                                              ; preds = %104
  %106 = load i32, ptr %16, align 4, !tbaa !103
  %107 = add nsw i32 %106, 1
  store i32 %107, ptr %16, align 4, !tbaa !103
  br label %54

108:                                              ; preds = %58
  br label %109

109:                                              ; preds = %108
  %110 = load ptr, ptr %8, align 8
  %111 = load i32, ptr %110, align 4, !tbaa !103
  call void @__kmpc_for_static_fini(ptr @1, i32 %111)
  call void @llvm.lifetime.end.p0(i64 4, ptr %24) #3
  call void @llvm.lifetime.end.p0(i64 4, ptr %23) #3
  call void @llvm.lifetime.end.p0(i64 4, ptr %22) #3
  call void @llvm.lifetime.end.p0(i64 4, ptr %21) #3
  call void @llvm.lifetime.end.p0(i64 4, ptr %20) #3
  br label %112

112:                                              ; preds = %109, %7
  call void @llvm.lifetime.end.p0(i64 4, ptr %18) #3
  call void @llvm.lifetime.end.p0(i64 4, ptr %17) #3
  call void @llvm.lifetime.end.p0(i64 4, ptr %16) #3
  ret void
}