; Function Attrs: alwaysinline norecurse nounwind uwtable
define internal void @_ZN8LightGBM8Metadata4InitERKS0_PKii.omp_outlined.13(ptr noalias noundef readonly captures(none) %0, ptr noalias readnone captures(none) %1, ptr noundef nonnull readonly align 4 captures(none) dereferenceable(4) %2, ptr noundef readonly captures(none) %3, ptr noundef nonnull readonly align 8 captures(none) dereferenceable(300) %4, ptr noundef nonnull readonly align 4 captures(none) dereferenceable(4) %5, ptr noundef nonnull readonly align 8 captures(none) dereferenceable(8) %6) #21 {
  %8 = alloca i32, align 4
  %9 = alloca i32, align 4
  %10 = alloca i32, align 4
  %11 = alloca i32, align 4
  %12 = load i32, ptr %2, align 4, !tbaa !59
  %13 = icmp sgt i32 %12, 0
  br i1 %13, label %14, label %46

14:                                               ; preds = %7
  %15 = add nsw i32 %12, -1
  call void @llvm.lifetime.start.p0(i64 4, ptr nonnull %8) #20
  store i32 0, ptr %8, align 4, !tbaa !59
  call void @llvm.lifetime.start.p0(i64 4, ptr nonnull %9) #20
  store i32 %15, ptr %9, align 4, !tbaa !59
  call void @llvm.lifetime.start.p0(i64 4, ptr nonnull %10) #20
  store i32 1, ptr %10, align 4, !tbaa !59
  call void @llvm.lifetime.start.p0(i64 4, ptr nonnull %11) #20
  store i32 0, ptr %11, align 4, !tbaa !59
  %16 = load i32, ptr %0, align 4, !tbaa !59
  call void @__kmpc_for_static_init_4(ptr nonnull @1, i32 %16, i32 34, ptr nonnull %11, ptr nonnull %8, ptr nonnull %9, ptr nonnull %10, i32 1, i32 1)
  %17 = load i32, ptr %9, align 4, !tbaa !59
  %18 = call i32 @llvm.smin.i32(i32 %17, i32 %15)
  store i32 %18, ptr %9, align 4, !tbaa !59
  %19 = load i32, ptr %8, align 4, !tbaa !59
  %.not26 = icmp sgt i32 %19, %18
  br i1 %.not26, label %._crit_edge30, label %.lr.ph29

.lr.ph29:                                         ; preds = %14
  %20 = getelementptr inbounds nuw i8, ptr %3, i64 32
  %21 = load i32, ptr %20, align 8, !tbaa !40
  %22 = sext i32 %21 to i64
  %23 = getelementptr inbounds nuw i8, ptr %4, i64 32
  %24 = load i32, ptr %23, align 8, !tbaa !40
  %25 = sext i32 %24 to i64
  %26 = load i32, ptr %5, align 4, !tbaa !59
  %27 = icmp sgt i32 %26, 0
  %28 = getelementptr inbounds nuw i8, ptr %4, i64 208
  %29 = load ptr, ptr %6, align 8
  %30 = load ptr, ptr %28, align 8
  br i1 %27, label %.lr.ph29.split.us, label %._crit_edge30

.lr.ph29.split.us:                                ; preds = %.lr.ph29
  %31 = getelementptr inbounds nuw i8, ptr %3, i64 208
  %32 = load ptr, ptr %31, align 8, !tbaa !95
  %33 = sext i32 %19 to i64
  %34 = add nsw i32 %18, 1
  %wide.trip.count = zext nneg i32 %26 to i64
  br label %.lr.ph.us

.lr.ph.us:                                        ; preds = %._crit_edge.us, %.lr.ph29.split.us
  %indvars.iv33 = phi i64 [ %indvars.iv.next34, %._crit_edge.us ], [ %33, %.lr.ph29.split.us ]
  %35 = mul nsw i64 %indvars.iv33, %22
  %36 = mul nsw i64 %indvars.iv33, %25
  %37 = getelementptr double, ptr %30, i64 %36
  %38 = getelementptr double, ptr %32, i64 %35
  br label %39

39:                                               ; preds = %.lr.ph.us, %39
  %indvars.iv = phi i64 [ 0, %.lr.ph.us ], [ %indvars.iv.next, %39 ]
  %40 = getelementptr inbounds nuw i32, ptr %29, i64 %indvars.iv
  %41 = load i32, ptr %40, align 4, !tbaa !59
  %42 = sext i32 %41 to i64
  %43 = getelementptr double, ptr %37, i64 %42
  %44 = load double, ptr %43, align 8, !tbaa !93
  %45 = getelementptr double, ptr %38, i64 %indvars.iv
  store double %44, ptr %45, align 8, !tbaa !93
  %indvars.iv.next = add nuw nsw i64 %indvars.iv, 1
  %exitcond.not = icmp eq i64 %indvars.iv.next, %wide.trip.count
  br i1 %exitcond.not, label %._crit_edge.us, label %39, !llvm.loop !117

._crit_edge.us:                                   ; preds = %39
  %indvars.iv.next34 = add nsw i64 %indvars.iv33, 1
  %lftr.wideiv = trunc i64 %indvars.iv.next34 to i32
  %exitcond36.not = icmp eq i32 %34, %lftr.wideiv
  br i1 %exitcond36.not, label %._crit_edge30, label %.lr.ph.us

._crit_edge30:                                    ; preds = %._crit_edge.us, %.lr.ph29, %14
  call void @__kmpc_for_static_fini(ptr nonnull @1, i32 %16)
  call void @llvm.lifetime.end.p0(i64 4, ptr nonnull %11) #20
  call void @llvm.lifetime.end.p0(i64 4, ptr nonnull %10) #20
  call void @llvm.lifetime.end.p0(i64 4, ptr nonnull %9) #20
  call void @llvm.lifetime.end.p0(i64 4, ptr nonnull %8) #20
  br label %46

46:                                               ; preds = %._crit_edge30, %7
  ret void
}